target datalayout = "e-m:e-p270:32:32-p271:32:32-p272:64:64-i64:64-i128:128-f80:128-n8:16:32:64-S128"
target triple = "x86_64-pc-linux-gnu"

%struct.luaL_Buffer = type { ptr, i64, i64, ptr, %union.anon }
%union.anon = type { double, [1016 x i8] }
%struct.str_Writer = type { i32, %struct.luaL_Buffer }

@.str.19 = private unnamed_addr constant [22 x i8] c"Lua function expected\00", align 1

; Function Attrs: nounwind uwtable
define internal i32 @str_dump(ptr noundef %0) #0 {
  %2 = alloca ptr, align 8
  %3 = alloca %struct.str_Writer, align 8
  %4 = alloca i32, align 4
  store ptr %0, ptr %2, align 8, !tbaa !4
  call void @llvm.lifetime.start.p0(i64 1064, ptr %3) #11
  call void @llvm.lifetime.start.p0(i64 4, ptr %4) #11
  %5 = load ptr, ptr %2, align 8, !tbaa !4
  %6 = call i32 @lua_toboolean(ptr noundef %5, i32 noundef 2)
  store i32 %6, ptr %4, align 4, !tbaa !15
  %7 = load ptr, ptr %2, align 8, !tbaa !4
  %8 = call i32 @lua_type(ptr noundef %7, i32 noundef 1)
  %9 = icmp eq i32 %8, 6
  br i1 %9, label %10, label %15

10:                                               ; preds = %1
  %11 = load ptr, ptr %2, align 8, !tbaa !4
  %12 = call i32 @lua_iscfunction(ptr noundef %11, i32 noundef 1)
  %13 = icmp ne i32 %12, 0
  %14 = xor i1 %13, true
  br label %15

15:                                               ; preds = %10, %1
  %16 = phi i1 [ false, %1 ], [ %14, %10 ]
  %17 = zext i1 %16 to i32
  %18 = icmp ne i32 %17, 0
  %19 = zext i1 %18 to i32
  %20 = sext i32 %19 to i64
  %21 = call i64 @llvm.expect.i64(i64 %20, i64 1)
  %22 = icmp ne i64 %21, 0
  br i1 %22, label %26, label %23

23:                                               ; preds = %15
  %24 = load ptr, ptr %2, align 8, !tbaa !4
  %25 = call i32 @luaL_argerror(ptr noundef %24, i32 noundef 1, ptr noundef @.str.19)
  br label %26

26:                                               ; preds = %23, %15
  %27 = load ptr, ptr %2, align 8, !tbaa !4
  call void @lua_pushvalue(ptr noundef %27, i32 noundef 1)
  %28 = getelementptr inbounds nuw %struct.str_Writer, ptr %3, i32 0, i32 0
  store i32 0, ptr %28, align 8, !tbaa !18
  %29 = load ptr, ptr %2, align 8, !tbaa !4
  %30 = load i32, ptr %4, align 4, !tbaa !15
  %31 = call i32 @lua_dump(ptr noundef %29, ptr noundef @writer, ptr noundef %3, i32 noundef %30)
  %32 = load ptr, ptr %2, align 8, !tbaa !4
  call void @lua_settop(ptr noundef %32, i32 noundef 1)
  call void @llvm.lifetime.end.p0(i64 4, ptr %4) #11
  call void @llvm.lifetime.end.p0(i64 1064, ptr %3) #11
  ret i32 1
}