; Function Attrs: nounwind uwtable
define internal noundef i32 @str_dump(ptr noundef %0) #0 {
  %2 = alloca %struct.str_Writer, align 8
  call void @llvm.lifetime.start.p0(i64 1064, ptr nonnull %2) #12
  %3 = tail call i32 @lua_toboolean(ptr noundef %0, i32 noundef 2) #12
  %4 = tail call i32 @lua_type(ptr noundef %0, i32 noundef 1) #12
  %5 = icmp eq i32 %4, 6
  br i1 %5, label %6, label %.critedge

6:                                                ; preds = %1
  %7 = tail call i32 @lua_iscfunction(ptr noundef %0, i32 noundef 1) #12
  %.not = icmp eq i32 %7, 0
  br i1 %.not, label %9, label %.critedge, !prof !10

.critedge:                                        ; preds = %1, %6
  %8 = tail call i32 @luaL_argerror(ptr noundef %0, i32 noundef 1, ptr noundef nonnull @.str.19) #12
  br label %9

9:                                                ; preds = %.critedge, %6
  tail call void @lua_pushvalue(ptr noundef %0, i32 noundef 1) #12
  store i32 0, ptr %2, align 8, !tbaa !11
  %10 = call i32 @lua_dump(ptr noundef %0, ptr noundef nonnull @writer, ptr noundef nonnull %2, i32 noundef %3) #12
  call void @lua_settop(ptr noundef %0, i32 noundef 1) #12
  call void @llvm.lifetime.end.p0(i64 1064, ptr nonnull %2) #12
  ret i32 1
}